target datalayout = "e-m:e-p270:32:32-p271:32:32-p272:64:64-i64:64-i128:128-f80:128-n8:16:32:64-S128"
target triple = "x86_64-pc-linux-gnu"

%struct.pm_newline_list_t = type { ptr, i64, i64, ptr }

; Function Attrs: nounwind sspstrong uwtable
define hidden zeroext i1 @pm_newline_list_init(ptr noundef %0, ptr noundef %1, i64 noundef %2) #0 {
  %4 = alloca i1, align 1
  %5 = alloca ptr, align 8
  %6 = alloca ptr, align 8
  %7 = alloca i64, align 8
  store ptr %0, ptr %5, align 8, !tbaa !7
  store ptr %1, ptr %6, align 8, !tbaa !11
  store i64 %2, ptr %7, align 8, !tbaa !13
  %8 = load i64, ptr %7, align 8, !tbaa !13
  %9 = call noalias ptr @calloc(i64 noundef %8, i64 noundef 8) #6
  %10 = load ptr, ptr %5, align 8, !tbaa !7
  %11 = getelementptr inbounds nuw %struct.pm_newline_list_t, ptr %10, i32 0, i32 3
  store ptr %9, ptr %11, align 8, !tbaa !15
  %12 = load ptr, ptr %5, align 8, !tbaa !7
  %13 = getelementptr inbounds nuw %struct.pm_newline_list_t, ptr %12, i32 0, i32 3
  %14 = load ptr, ptr %13, align 8, !tbaa !15
  %15 = icmp eq ptr %14, null
  br i1 %15, label %16, label %17

16:                                               ; preds = %3
  store i1 false, ptr %4, align 1
  br label %26

17:                                               ; preds = %3
  %18 = load ptr, ptr %6, align 8, !tbaa !11
  %19 = load ptr, ptr %5, align 8, !tbaa !7
  %20 = getelementptr inbounds nuw %struct.pm_newline_list_t, ptr %19, i32 0, i32 0
  store ptr %18, ptr %20, align 8, !tbaa !18
  %21 = load ptr, ptr %5, align 8, !tbaa !7
  %22 = getelementptr inbounds nuw %struct.pm_newline_list_t, ptr %21, i32 0, i32 1
  store i64 1, ptr %22, align 8, !tbaa !19
  %23 = load i64, ptr %7, align 8, !tbaa !13
  %24 = load ptr, ptr %5, align 8, !tbaa !7
  %25 = getelementptr inbounds nuw %struct.pm_newline_list_t, ptr %24, i32 0, i32 2
  store i64 %23, ptr %25, align 8, !tbaa !20
  store i1 true, ptr %4, align 1
  br label %26

26:                                               ; preds = %17, %16
  %27 = load i1, ptr %4, align 1
  ret i1 %27
}