; Function Attrs: mustprogress nofree nounwind sspstrong willreturn memory(argmem: write, inaccessiblemem: readwrite) uwtable
define hidden noundef zeroext i1 @pm_newline_list_init(ptr noundef writeonly captures(none) initializes((24, 32)) %0, ptr noundef %1, i64 noundef %2) local_unnamed_addr #0 {
  %4 = tail call noalias ptr @calloc(i64 noundef %2, i64 noundef 8) #8
  %5 = getelementptr inbounds nuw i8, ptr %0, i64 24
  store ptr %4, ptr %5, align 8, !tbaa !7
  %6 = icmp ne ptr %4, null
  br i1 %6, label %7, label %10

7:                                                ; preds = %3
  store ptr %1, ptr %0, align 8, !tbaa !15
  %8 = getelementptr inbounds nuw i8, ptr %0, i64 8
  store i64 1, ptr %8, align 8, !tbaa !16
  %9 = getelementptr inbounds nuw i8, ptr %0, i64 16
  store i64 %2, ptr %9, align 8, !tbaa !17
  br label %10

10:                                               ; preds = %3, %7
  ret i1 %6
}